; Function Attrs: nounwind uwtable
define void @ossl_qlog_str(ptr noundef %0, ptr noundef %1, ptr noundef %2) local_unnamed_addr #0 {
  %.not = icmp eq ptr %1, null
  br i1 %.not, label %6, label %4

4:                                                ; preds = %3
  %5 = getelementptr inbounds nuw i8, ptr %0, i64 152
  tail call void @ossl_json_key(ptr noundef nonnull %5, ptr noundef nonnull %1) #11
  br label %6

6:                                                ; preds = %4, %3
  %7 = getelementptr inbounds nuw i8, ptr %0, i64 152
  tail call void @ossl_json_str(ptr noundef nonnull %7, ptr noundef %2) #11
  ret void
}